target datalayout = "e-m:e-p270:32:32-p271:32:32-p272:64:64-i64:64-i128:128-f80:128-n8:16:32:64-S128"
target triple = "x86_64-pc-linux-gnu"

%struct._lv_chart_t = type { %struct._lv_obj_t, %struct.lv_ll_t, %struct.lv_ll_t, [2 x i32], [2 x i32], [2 x i32], [2 x i32], i32, i32, i32, i32, i8 }
%struct._lv_obj_t = type { ptr, ptr, ptr, ptr, ptr, %struct.lv_area_t, i32, i16, i16 }
%struct.lv_area_t = type { i32, i32, i32, i32 }
%struct.lv_ll_t = type { i32, ptr, ptr }
%struct._lv_chart_series_t = type { ptr, ptr, %struct.lv_color_t, i32, i8 }
%struct.lv_color_t = type { i8, i8, i8 }

; Function Attrs: nounwind uwtable
define void @lv_chart_set_next_value2(ptr noundef %0, ptr noundef %1, i32 noundef %2, i32 noundef %3) #0 {
  %5 = alloca ptr, align 8
  %6 = alloca ptr, align 8
  %7 = alloca i32, align 4
  %8 = alloca i32, align 4
  %9 = alloca ptr, align 8
  %10 = alloca i32, align 4
  store ptr %0, ptr %5, align 8, !tbaa !3
  store ptr %1, ptr %6, align 8, !tbaa !3
  store i32 %2, ptr %7, align 4, !tbaa !7
  store i32 %3, ptr %8, align 4, !tbaa !7
  br label %11

11:                                               ; preds = %4
  br label %12

12:                                               ; preds = %11
  br label %13

13:                                               ; preds = %12
  %14 = load ptr, ptr %6, align 8, !tbaa !3
  %15 = icmp ne ptr %14, null
  br i1 %15, label %20, label %16

16:                                               ; preds = %13
  br label %17

17:                                               ; preds = %16
  br label %18

18:                                               ; preds = %17
  br label %19

19:                                               ; preds = %18, %19
  br label %19

20:                                               ; preds = %13
  br label %21

21:                                               ; preds = %20
  call void @llvm.lifetime.start.p0(i64 8, ptr %9) #5
  %22 = load ptr, ptr %5, align 8, !tbaa !3
  store ptr %22, ptr %9, align 8, !tbaa !3
  %23 = load ptr, ptr %9, align 8, !tbaa !3
  %24 = getelementptr inbounds nuw %struct._lv_chart_t, ptr %23, i32 0, i32 11
  %25 = load i8, ptr %24, align 8
  %26 = and i8 %25, 7
  %27 = zext i8 %26 to i32
  %28 = icmp ne i32 %27, 3
  br i1 %28, label %29, label %33

29:                                               ; preds = %21
  br label %30

30:                                               ; preds = %29
  br label %31

31:                                               ; preds = %30
  br label %32

32:                                               ; preds = %31
  store i32 1, ptr %10, align 4
  br label %66

33:                                               ; preds = %21
  %34 = load i32, ptr %7, align 4, !tbaa !7
  %35 = load ptr, ptr %6, align 8, !tbaa !3
  %36 = getelementptr inbounds nuw %struct._lv_chart_series_t, ptr %35, i32 0, i32 0
  %37 = load ptr, ptr %36, align 8, !tbaa !24
  %38 = load ptr, ptr %6, align 8, !tbaa !3
  %39 = getelementptr inbounds nuw %struct._lv_chart_series_t, ptr %38, i32 0, i32 3
  %40 = load i32, ptr %39, align 4, !tbaa !32
  %41 = zext i32 %40 to i64
  %42 = getelementptr inbounds nuw i32, ptr %37, i64 %41
  store i32 %34, ptr %42, align 4, !tbaa !7
  %43 = load i32, ptr %8, align 4, !tbaa !7
  %44 = load ptr, ptr %6, align 8, !tbaa !3
  %45 = getelementptr inbounds nuw %struct._lv_chart_series_t, ptr %44, i32 0, i32 1
  %46 = load ptr, ptr %45, align 8, !tbaa !21
  %47 = load ptr, ptr %6, align 8, !tbaa !3
  %48 = getelementptr inbounds nuw %struct._lv_chart_series_t, ptr %47, i32 0, i32 3
  %49 = load i32, ptr %48, align 4, !tbaa !32
  %50 = zext i32 %49 to i64
  %51 = getelementptr inbounds nuw i32, ptr %46, i64 %50
  store i32 %43, ptr %51, align 4, !tbaa !7
  %52 = load ptr, ptr %6, align 8, !tbaa !3
  %53 = getelementptr inbounds nuw %struct._lv_chart_series_t, ptr %52, i32 0, i32 3
  %54 = load i32, ptr %53, align 4, !tbaa !32
  %55 = add i32 %54, 1
  %56 = load ptr, ptr %9, align 8, !tbaa !3
  %57 = getelementptr inbounds nuw %struct._lv_chart_t, ptr %56, i32 0, i32 10
  %58 = load i32, ptr %57, align 4, !tbaa !16
  %59 = urem i32 %55, %58
  %60 = load ptr, ptr %6, align 8, !tbaa !3
  %61 = getelementptr inbounds nuw %struct._lv_chart_series_t, ptr %60, i32 0, i32 3
  store i32 %59, ptr %61, align 4, !tbaa !32
  %62 = load ptr, ptr %5, align 8, !tbaa !3
  %63 = load ptr, ptr %6, align 8, !tbaa !3
  %64 = getelementptr inbounds nuw %struct._lv_chart_series_t, ptr %63, i32 0, i32 3
  %65 = load i32, ptr %64, align 4, !tbaa !32
  call void @invalidate_point(ptr noundef %62, i32 noundef %65)
  store i32 0, ptr %10, align 4
  br label %66

66:                                               ; preds = %33, %32
  call void @llvm.lifetime.end.p0(i64 8, ptr %9) #5
  %67 = load i32, ptr %10, align 4
  switch i32 %67, label %69 [
    i32 0, label %68
    i32 1, label %68
  ]

68:                                               ; preds = %66, %66
  ret void

69:                                               ; preds = %66
  unreachable
}