; Function Attrs: nounwind uwtable
define void @lv_chart_set_next_value2(ptr noundef %0, ptr noundef %1, i32 noundef %2, i32 noundef %3) local_unnamed_addr #0 {
  %.not = icmp eq ptr %1, null
  br i1 %.not, label %.preheader, label %5

.preheader:                                       ; preds = %4, %.preheader
  br label %.preheader

5:                                                ; preds = %4
  %6 = getelementptr inbounds nuw i8, ptr %0, i64 160
  %7 = load i8, ptr %6, align 8
  %8 = and i8 %7, 7
  %.not13 = icmp eq i8 %8, 3
  br i1 %.not13, label %9, label %25

9:                                                ; preds = %5
  %10 = load ptr, ptr %1, align 8, !tbaa !21
  %11 = getelementptr inbounds nuw i8, ptr %1, i64 20
  %12 = load i32, ptr %11, align 4, !tbaa !66
  %13 = zext i32 %12 to i64
  %14 = getelementptr inbounds nuw i32, ptr %10, i64 %13
  store i32 %2, ptr %14, align 4, !tbaa !3
  %15 = getelementptr inbounds nuw i8, ptr %1, i64 8
  %16 = load ptr, ptr %15, align 8, !tbaa !18
  %17 = load i32, ptr %11, align 4, !tbaa !66
  %18 = zext i32 %17 to i64
  %19 = getelementptr inbounds nuw i32, ptr %16, i64 %18
  store i32 %3, ptr %19, align 4, !tbaa !3
  %20 = load i32, ptr %11, align 4, !tbaa !66
  %21 = add i32 %20, 1
  %22 = getelementptr inbounds nuw i8, ptr %0, i64 156
  %23 = load i32, ptr %22, align 4, !tbaa !15
  %24 = urem i32 %21, %23
  store i32 %24, ptr %11, align 4, !tbaa !66
  tail call fastcc void @invalidate_point(ptr noundef nonnull %0, i32 noundef %24)
  br label %25

25:                                               ; preds = %5, %9
  ret void
}